target datalayout = "e-m:e-p270:32:32-p271:32:32-p272:64:64-i64:64-i128:128-f80:128-n8:16:32:64-S128"
target triple = "x86_64-pc-linux-gnu"

%"class.std::fpos" = type { i64, %struct.__mbstate_t }
%struct.__mbstate_t = type { i32, %union.anon }
%union.anon = type { i32 }
%"class.LIEF::vector_iostream" = type <{ %"class.std::vector", %"class.std::fpos", %"class.std::vector.0", ptr, i8, [7 x i8] }>
%"class.std::vector" = type { %"struct.std::_Vector_base" }
%"struct.std::_Vector_base" = type { %"struct.std::_Vector_base<std::vector<unsigned long>, std::allocator<std::vector<unsigned long>>>::_Vector_impl" }
%"struct.std::_Vector_base<std::vector<unsigned long>, std::allocator<std::vector<unsigned long>>>::_Vector_impl" = type { %"struct.std::_Vector_base<std::vector<unsigned long>, std::allocator<std::vector<unsigned long>>>::_Vector_impl_data" }
%"struct.std::_Vector_base<std::vector<unsigned long>, std::allocator<std::vector<unsigned long>>>::_Vector_impl_data" = type { ptr, ptr, ptr }
%"class.std::vector.0" = type { %"struct.std::_Vector_base.1" }
%"struct.std::_Vector_base.1" = type { %"struct.std::_Vector_base<unsigned char, std::allocator<unsigned char>>::_Vector_impl" }
%"struct.std::_Vector_base<unsigned char, std::allocator<unsigned char>>::_Vector_impl" = type { %"struct.std::_Vector_base<unsigned char, std::allocator<unsigned char>>::_Vector_impl_data" }
%"struct.std::_Vector_base<unsigned char, std::allocator<unsigned char>>::_Vector_impl_data" = type { ptr, ptr, ptr }

; Function Attrs: mustprogress nounwind uwtable
define linkonce_odr hidden noundef nonnull align 8 dereferenceable(16) ptr @_ZNSt4fposI11__mbstate_tEpLEl(ptr noundef nonnull align 8 dereferenceable(16) %0, i64 noundef %1) #0 comdat align 2 {
  %3 = alloca ptr, align 8
  %4 = alloca i64, align 8
  store ptr %0, ptr %3, align 8, !tbaa !39
  store i64 %1, ptr %4, align 8, !tbaa !3
  %5 = load ptr, ptr %3, align 8
  %6 = load i64, ptr %4, align 8, !tbaa !3
  %7 = getelementptr inbounds nuw %"class.std::fpos", ptr %5, i32 0, i32 0
  %8 = load i64, ptr %7, align 8, !tbaa !41
  %9 = add nsw i64 %8, %6
  store i64 %9, ptr %7, align 8, !tbaa !41
  ret ptr %5
}

; Function Attrs: mustprogress nounwind uwtable
define linkonce_odr hidden void @_ZNSt4fposI11__mbstate_tEC2El(ptr noundef nonnull align 8 dereferenceable(16) %0, i64 noundef %1) unnamed_addr #0 comdat align 2 {
  %3 = alloca ptr, align 8
  %4 = alloca i64, align 8
  store ptr %0, ptr %3, align 8, !tbaa !39
  store i64 %1, ptr %4, align 8, !tbaa !3
  %5 = load ptr, ptr %3, align 8
  %6 = getelementptr inbounds nuw %"class.std::fpos", ptr %5, i32 0, i32 0
  %7 = load i64, ptr %4, align 8, !tbaa !3
  store i64 %7, ptr %6, align 8, !tbaa !41
  %8 = getelementptr inbounds nuw %"class.std::fpos", ptr %5, i32 0, i32 1
  call void @llvm.memset.p0.i64(ptr align 8 %8, i8 0, i64 8, i1 false)
  ret void
}

; Function Attrs: mustprogress nounwind uwtable
define hidden noundef nonnull align 8 dereferenceable(73) ptr @_ZN4LIEF15vector_iostream5seekpElSt12_Ios_Seekdir(ptr noundef nonnull align 8 dereferenceable(73) %0, i64 noundef %1, i32 noundef %2) #0 align 2 {
  %4 = alloca ptr, align 8
  %5 = alloca ptr, align 8
  %6 = alloca i64, align 8
  %7 = alloca i32, align 4
  %8 = alloca %"class.std::fpos", align 8
  store ptr %0, ptr %5, align 8, !tbaa !16
  store i64 %1, ptr %6, align 8, !tbaa !3
  store i32 %2, ptr %7, align 4, !tbaa !46
  %9 = load ptr, ptr %5, align 8
  %10 = load i32, ptr %7, align 4, !tbaa !46
  switch i32 %10, label %19 [
    i32 0, label %11
    i32 2, label %14
    i32 1, label %15
  ]

11:                                               ; preds = %3
  call void @llvm.lifetime.start.p0(i64 16, ptr %8) #10
  %12 = load i64, ptr %6, align 8, !tbaa !3
  call void @_ZNSt4fposI11__mbstate_tEC2El(ptr noundef nonnull align 8 dereferenceable(16) %8, i64 noundef %12)
  %13 = getelementptr inbounds nuw %"class.LIEF::vector_iostream", ptr %9, i32 0, i32 1
  call void @llvm.memcpy.p0.p0.i64(ptr align 8 %13, ptr align 8 %8, i64 16, i1 false), !tbaa.struct !38
  call void @llvm.lifetime.end.p0(i64 16, ptr %8) #10
  store ptr %9, ptr %4, align 8
  br label %20

14:                                               ; preds = %3
  store ptr %9, ptr %4, align 8
  br label %20

15:                                               ; preds = %3
  %16 = load i64, ptr %6, align 8, !tbaa !3
  %17 = getelementptr inbounds nuw %"class.LIEF::vector_iostream", ptr %9, i32 0, i32 1
  %18 = call noundef nonnull align 8 dereferenceable(16) ptr @_ZNSt4fposI11__mbstate_tEpLEl(ptr noundef nonnull align 8 dereferenceable(16) %17, i64 noundef %16)
  store ptr %9, ptr %4, align 8
  br label %20

19:                                               ; preds = %3
  store ptr %9, ptr %4, align 8
  br label %20

20:                                               ; preds = %19, %15, %14, %11
  %21 = load ptr, ptr %4, align 8
  ret ptr %21
}