; Function Attrs: mustprogress nofree norecurse nosync nounwind willreturn memory(argmem: readwrite) uwtable
define hidden noundef nonnull align 8 dereferenceable(73) ptr @_ZN4LIEF15vector_iostream5seekpElSt12_Ios_Seekdir(ptr noundef nonnull returned align 8 dereferenceable(73) %0, i64 noundef %1, i32 noundef %2) local_unnamed_addr #3 align 2 {
  switch i32 %2, label %10 [
    i32 0, label %4
    i32 1, label %6
  ]

4:                                                ; preds = %3
  %5 = getelementptr inbounds nuw i8, ptr %0, i64 24
  store i64 %1, ptr %5, align 8, !tbaa !29
  %.sroa.4.0..sroa_idx = getelementptr inbounds nuw i8, ptr %0, i64 32
  store i64 0, ptr %.sroa.4.0..sroa_idx, align 8
  br label %10

6:                                                ; preds = %3
  %7 = getelementptr inbounds nuw i8, ptr %0, i64 24
  %8 = load i64, ptr %7, align 8, !tbaa !31
  %9 = add nsw i64 %8, %1
  store i64 %9, ptr %7, align 8, !tbaa !31
  br label %10

10:                                               ; preds = %3, %6, %4
  ret ptr %0
}